; Function Attrs: nofree nounwind uwtable
define void @Sle_ManPrintCuts(ptr noundef readnone captures(none) %0, ptr noundef readonly captures(none) %1, i32 noundef %2) local_unnamed_addr #5 {
  %4 = getelementptr i8, ptr %1, i64 8
  %.val = load ptr, ptr %4, align 8, !tbaa !28
  %5 = sext i32 %2 to i64
  %6 = getelementptr inbounds i32, ptr %.val, i64 %5
  %7 = load i32, ptr %6, align 4, !tbaa !29
  %8 = sext i32 %7 to i64
  %9 = getelementptr inbounds i32, ptr %.val, i64 %8
  %10 = tail call i32 (ptr, ...) @printf(ptr noundef nonnull dereferenceable(1) @.str.4, i32 noundef %2)
  %11 = load i32, ptr %9, align 4, !tbaa !29
  %12 = icmp sgt i32 %11, 0
  br i1 %12, label %.lr.ph, label %._crit_edge

.lr.ph:                                           ; preds = %3, %Sle_ManPrintCut.exit
  %.013 = phi i32 [ %18, %Sle_ManPrintCut.exit ], [ 0, %3 ]
  %.pn12 = phi ptr [ %21, %Sle_ManPrintCut.exit ], [ %9, %3 ]
  %.010 = getelementptr inbounds nuw i8, ptr %.pn12, i64 4
  %.val.i = load i32, ptr %.010, align 4, !tbaa !29
  %13 = and i32 %.val.i, 15
  %14 = getelementptr inbounds nuw i8, ptr %.pn12, i64 8
  %putchar.i = tail call i32 @putchar(i32 123)
  %.not.i = icmp eq i32 %13, 0
  br i1 %.not.i, label %Sle_ManPrintCut.exit, label %.lr.ph.preheader.i

.lr.ph.preheader.i:                               ; preds = %.lr.ph
  %wide.trip.count.i = zext nneg i32 %13 to i64
  br label %.lr.ph.i

.lr.ph.i:                                         ; preds = %.lr.ph.i, %.lr.ph.preheader.i
  %indvars.iv.i = phi i64 [ 0, %.lr.ph.preheader.i ], [ %indvars.iv.next.i, %.lr.ph.i ]
  %15 = getelementptr inbounds nuw i32, ptr %14, i64 %indvars.iv.i
  %16 = load i32, ptr %15, align 4, !tbaa !29
  %17 = tail call i32 (ptr, ...) @printf(ptr noundef nonnull dereferenceable(1) @.str.2, i32 noundef %16)
  %indvars.iv.next.i = add nuw nsw i64 %indvars.iv.i, 1
  %exitcond.not.i = icmp eq i64 %indvars.iv.next.i, %wide.trip.count.i
  br i1 %exitcond.not.i, label %Sle_ManPrintCut.exit, label %.lr.ph.i, !llvm.loop !52

Sle_ManPrintCut.exit:                             ; preds = %.lr.ph.i, %.lr.ph
  %puts.i = tail call i32 @puts(ptr nonnull dereferenceable(1) @str.1)
  %18 = add nuw nsw i32 %.013, 1
  %.010.val = load i32, ptr %.010, align 4, !tbaa !29
  %19 = and i32 %.010.val, 15
  %20 = zext nneg i32 %19 to i64
  %21 = getelementptr inbounds nuw i32, ptr %.010, i64 %20
  %22 = load i32, ptr %9, align 4, !tbaa !29
  %23 = icmp slt i32 %18, %22
  br i1 %23, label %.lr.ph, label %._crit_edge, !llvm.loop !53

._crit_edge:                                      ; preds = %Sle_ManPrintCut.exit, %3
  %putchar = tail call i32 @putchar(i32 10)
  ret void
}